target datalayout = "e-m:e-p270:32:32-p271:32:32-p272:64:64-i64:64-i128:128-f80:128-n8:16:32:64-S128"
target triple = "x86_64-pc-linux-gnu"

%struct.InvalMessageArray = type { ptr, i32 }
%struct.RelFileLocator = type { i32, i32, i32 }
%struct.SharedInvalSmgrMsg = type { i8, i8, i16, %struct.RelFileLocator }
%struct.TransInvalidationInfo = type { %struct.InvalidationInfo, %struct.InvalidationMsgsGroup, ptr, i32 }
%struct.InvalidationInfo = type { %struct.InvalidationMsgsGroup, i8 }
%struct.InvalidationMsgsGroup = type { [2 x i32], [2 x i32] }
%union.SharedInvalidationMessage = type { %struct.SharedInvalSmgrMsg }

@transInvalInfo = internal global ptr null, align 8
@CurTransactionContext = external global ptr, align 8
@InvalMessageArrays = internal global [2 x %struct.InvalMessageArray] zeroinitializer, align 16

; Function Attrs: nounwind uwtable
define dso_local i32 @xactGetCommittedInvalidationMessages(ptr noundef %0, ptr noundef %1) #0 {
  %3 = alloca i32, align 4
  %4 = alloca ptr, align 8
  %5 = alloca ptr, align 8
  %6 = alloca ptr, align 8
  %7 = alloca i32, align 4
  %8 = alloca i32, align 4
  %9 = alloca i32, align 4
  %10 = alloca i32, align 4
  %11 = alloca ptr, align 8
  %12 = alloca i32, align 4
  %13 = alloca ptr, align 8
  %14 = alloca i32, align 4
  %15 = alloca ptr, align 8
  %16 = alloca i32, align 4
  %17 = alloca ptr, align 8
  store ptr %0, ptr %4, align 8
  store ptr %1, ptr %5, align 8
  call void @llvm.lifetime.start.p0(i64 8, ptr %6) #7
  call void @llvm.lifetime.start.p0(i64 4, ptr %7) #7
  call void @llvm.lifetime.start.p0(i64 4, ptr %8) #7
  %18 = load ptr, ptr @transInvalInfo, align 8
  %19 = icmp eq ptr %18, null
  br i1 %19, label %20, label %23

20:                                               ; preds = %2
  %21 = load ptr, ptr %5, align 8
  store i8 0, ptr %21, align 1
  %22 = load ptr, ptr %4, align 8
  store ptr null, ptr %22, align 8
  store i32 0, ptr %3, align 4
  store i32 1, ptr %9, align 4
  br label %243

23:                                               ; preds = %2
  %24 = load ptr, ptr @transInvalInfo, align 8
  %25 = getelementptr inbounds nuw %struct.TransInvalidationInfo, ptr %24, i32 0, i32 0
  %26 = getelementptr inbounds nuw %struct.InvalidationInfo, ptr %25, i32 0, i32 1
  %27 = load i8, ptr %26, align 8, !range !4, !noundef !5
  %28 = trunc i8 %27 to i1
  %29 = load ptr, ptr %5, align 8
  %30 = zext i1 %28 to i8
  store i8 %30, ptr %29, align 1
  %31 = load ptr, ptr @transInvalInfo, align 8
  %32 = getelementptr inbounds nuw %struct.TransInvalidationInfo, ptr %31, i32 0, i32 1
  %33 = getelementptr inbounds nuw %struct.InvalidationMsgsGroup, ptr %32, i32 0, i32 1
  %34 = getelementptr inbounds [2 x i32], ptr %33, i64 0, i64 0
  %35 = load i32, ptr %34, align 4
  %36 = load ptr, ptr @transInvalInfo, align 8
  %37 = getelementptr inbounds nuw %struct.TransInvalidationInfo, ptr %36, i32 0, i32 1
  %38 = getelementptr inbounds nuw %struct.InvalidationMsgsGroup, ptr %37, i32 0, i32 0
  %39 = getelementptr inbounds [2 x i32], ptr %38, i64 0, i64 0
  %40 = load i32, ptr %39, align 4
  %41 = sub i32 %35, %40
  %42 = load ptr, ptr @transInvalInfo, align 8
  %43 = getelementptr inbounds nuw %struct.TransInvalidationInfo, ptr %42, i32 0, i32 1
  %44 = getelementptr inbounds nuw %struct.InvalidationMsgsGroup, ptr %43, i32 0, i32 1
  %45 = getelementptr inbounds [2 x i32], ptr %44, i64 0, i64 1
  %46 = load i32, ptr %45, align 4
  %47 = load ptr, ptr @transInvalInfo, align 8
  %48 = getelementptr inbounds nuw %struct.TransInvalidationInfo, ptr %47, i32 0, i32 1
  %49 = getelementptr inbounds nuw %struct.InvalidationMsgsGroup, ptr %48, i32 0, i32 0
  %50 = getelementptr inbounds [2 x i32], ptr %49, i64 0, i64 1
  %51 = load i32, ptr %50, align 4
  %52 = sub i32 %46, %51
  %53 = add i32 %41, %52
  %54 = load ptr, ptr @transInvalInfo, align 8
  %55 = getelementptr inbounds nuw %struct.TransInvalidationInfo, ptr %54, i32 0, i32 0
  %56 = getelementptr inbounds nuw %struct.InvalidationInfo, ptr %55, i32 0, i32 0
  %57 = getelementptr inbounds nuw %struct.InvalidationMsgsGroup, ptr %56, i32 0, i32 1
  %58 = getelementptr inbounds [2 x i32], ptr %57, i64 0, i64 0
  %59 = load i32, ptr %58, align 8
  %60 = load ptr, ptr @transInvalInfo, align 8
  %61 = getelementptr inbounds nuw %struct.TransInvalidationInfo, ptr %60, i32 0, i32 0
  %62 = getelementptr inbounds nuw %struct.InvalidationInfo, ptr %61, i32 0, i32 0
  %63 = getelementptr inbounds nuw %struct.InvalidationMsgsGroup, ptr %62, i32 0, i32 0
  %64 = getelementptr inbounds [2 x i32], ptr %63, i64 0, i64 0
  %65 = load i32, ptr %64, align 8
  %66 = sub i32 %59, %65
  %67 = load ptr, ptr @transInvalInfo, align 8
  %68 = getelementptr inbounds nuw %struct.TransInvalidationInfo, ptr %67, i32 0, i32 0
  %69 = getelementptr inbounds nuw %struct.InvalidationInfo, ptr %68, i32 0, i32 0
  %70 = getelementptr inbounds nuw %struct.InvalidationMsgsGroup, ptr %69, i32 0, i32 1
  %71 = getelementptr inbounds [2 x i32], ptr %70, i64 0, i64 1
  %72 = load i32, ptr %71, align 4
  %73 = load ptr, ptr @transInvalInfo, align 8
  %74 = getelementptr inbounds nuw %struct.TransInvalidationInfo, ptr %73, i32 0, i32 0
  %75 = getelementptr inbounds nuw %struct.InvalidationInfo, ptr %74, i32 0, i32 0
  %76 = getelementptr inbounds nuw %struct.InvalidationMsgsGroup, ptr %75, i32 0, i32 0
  %77 = getelementptr inbounds [2 x i32], ptr %76, i64 0, i64 1
  %78 = load i32, ptr %77, align 4
  %79 = sub i32 %72, %78
  %80 = add i32 %66, %79
  %81 = add i32 %53, %80
  store i32 %81, ptr %7, align 4
  %82 = load ptr, ptr @CurTransactionContext, align 8
  %83 = load i32, ptr %7, align 4
  %84 = sext i32 %83 to i64
  %85 = mul i64 %84, 16
  %86 = call ptr @MemoryContextAlloc(ptr noundef %82, i64 noundef %85)
  store ptr %86, ptr %6, align 8
  %87 = load ptr, ptr %4, align 8
  store ptr %86, ptr %87, align 8
  store i32 0, ptr %8, align 4
  br label %88

88:                                               ; preds = %23
  call void @llvm.lifetime.start.p0(i64 4, ptr %10) #7
  %89 = load ptr, ptr @transInvalInfo, align 8
  %90 = getelementptr inbounds nuw %struct.TransInvalidationInfo, ptr %89, i32 0, i32 1
  %91 = getelementptr inbounds nuw %struct.InvalidationMsgsGroup, ptr %90, i32 0, i32 1
  %92 = getelementptr inbounds [2 x i32], ptr %91, i64 0, i64 0
  %93 = load i32, ptr %92, align 4
  %94 = load ptr, ptr @transInvalInfo, align 8
  %95 = getelementptr inbounds nuw %struct.TransInvalidationInfo, ptr %94, i32 0, i32 1
  %96 = getelementptr inbounds nuw %struct.InvalidationMsgsGroup, ptr %95, i32 0, i32 0
  %97 = getelementptr inbounds [2 x i32], ptr %96, i64 0, i64 0
  %98 = load i32, ptr %97, align 4
  %99 = sub i32 %93, %98
  store i32 %99, ptr %10, align 4
  %100 = load i32, ptr %10, align 4
  %101 = icmp sgt i32 %100, 0
  br i1 %101, label %102, label %122

102:                                              ; preds = %88
  call void @llvm.lifetime.start.p0(i64 8, ptr %11) #7
  %103 = load ptr, ptr @InvalMessageArrays, align 16
  %104 = load ptr, ptr @transInvalInfo, align 8
  %105 = getelementptr inbounds nuw %struct.TransInvalidationInfo, ptr %104, i32 0, i32 1
  %106 = getelementptr inbounds nuw %struct.InvalidationMsgsGroup, ptr %105, i32 0, i32 0
  %107 = getelementptr inbounds [2 x i32], ptr %106, i64 0, i64 0
  %108 = load i32, ptr %107, align 4
  %109 = sext i32 %108 to i64
  %110 = getelementptr inbounds %union.SharedInvalidationMessage, ptr %103, i64 %109
  store ptr %110, ptr %11, align 8
  %111 = load ptr, ptr %6, align 8
  %112 = load i32, ptr %8, align 4
  %113 = sext i32 %112 to i64
  %114 = getelementptr inbounds %union.SharedInvalidationMessage, ptr %111, i64 %113
  %115 = load ptr, ptr %11, align 8
  %116 = load i32, ptr %10, align 4
  %117 = sext i32 %116 to i64
  %118 = mul i64 %117, 16
  call void @llvm.memcpy.p0.p0.i64(ptr align 4 %114, ptr align 4 %115, i64 %118, i1 false)
  %119 = load i32, ptr %10, align 4
  %120 = load i32, ptr %8, align 4
  %121 = add i32 %120, %119
  store i32 %121, ptr %8, align 4
  call void @llvm.lifetime.end.p0(i64 8, ptr %11) #7
  br label %122

122:                                              ; preds = %102, %88
  call void @llvm.lifetime.end.p0(i64 4, ptr %10) #7
  br label %123

123:                                              ; preds = %122
  br label %124

124:                                              ; preds = %123
  br label %125

125:                                              ; preds = %124
  call void @llvm.lifetime.start.p0(i64 4, ptr %12) #7
  %126 = load ptr, ptr @transInvalInfo, align 8
  %127 = getelementptr inbounds nuw %struct.TransInvalidationInfo, ptr %126, i32 0, i32 0
  %128 = getelementptr inbounds nuw %struct.InvalidationInfo, ptr %127, i32 0, i32 0
  %129 = getelementptr inbounds nuw %struct.InvalidationMsgsGroup, ptr %128, i32 0, i32 1
  %130 = getelementptr inbounds [2 x i32], ptr %129, i64 0, i64 0
  %131 = load i32, ptr %130, align 8
  %132 = load ptr, ptr @transInvalInfo, align 8
  %133 = getelementptr inbounds nuw %struct.TransInvalidationInfo, ptr %132, i32 0, i32 0
  %134 = getelementptr inbounds nuw %struct.InvalidationInfo, ptr %133, i32 0, i32 0
  %135 = getelementptr inbounds nuw %struct.InvalidationMsgsGroup, ptr %134, i32 0, i32 0
  %136 = getelementptr inbounds [2 x i32], ptr %135, i64 0, i64 0
  %137 = load i32, ptr %136, align 8
  %138 = sub i32 %131, %137
  store i32 %138, ptr %12, align 4
  %139 = load i32, ptr %12, align 4
  %140 = icmp sgt i32 %139, 0
  br i1 %140, label %141, label %162

141:                                              ; preds = %125
  call void @llvm.lifetime.start.p0(i64 8, ptr %13) #7
  %142 = load ptr, ptr @InvalMessageArrays, align 16
  %143 = load ptr, ptr @transInvalInfo, align 8
  %144 = getelementptr inbounds nuw %struct.TransInvalidationInfo, ptr %143, i32 0, i32 0
  %145 = getelementptr inbounds nuw %struct.InvalidationInfo, ptr %144, i32 0, i32 0
  %146 = getelementptr inbounds nuw %struct.InvalidationMsgsGroup, ptr %145, i32 0, i32 0
  %147 = getelementptr inbounds [2 x i32], ptr %146, i64 0, i64 0
  %148 = load i32, ptr %147, align 8
  %149 = sext i32 %148 to i64
  %150 = getelementptr inbounds %union.SharedInvalidationMessage, ptr %142, i64 %149
  store ptr %150, ptr %13, align 8
  %151 = load ptr, ptr %6, align 8
  %152 = load i32, ptr %8, align 4
  %153 = sext i32 %152 to i64
  %154 = getelementptr inbounds %union.SharedInvalidationMessage, ptr %151, i64 %153
  %155 = load ptr, ptr %13, align 8
  %156 = load i32, ptr %12, align 4
  %157 = sext i32 %156 to i64
  %158 = mul i64 %157, 16
  call void @llvm.memcpy.p0.p0.i64(ptr align 4 %154, ptr align 4 %155, i64 %158, i1 false)
  %159 = load i32, ptr %12, align 4
  %160 = load i32, ptr %8, align 4
  %161 = add i32 %160, %159
  store i32 %161, ptr %8, align 4
  call void @llvm.lifetime.end.p0(i64 8, ptr %13) #7
  br label %162

162:                                              ; preds = %141, %125
  call void @llvm.lifetime.end.p0(i64 4, ptr %12) #7
  br label %163

163:                                              ; preds = %162
  br label %164

164:                                              ; preds = %163
  br label %165

165:                                              ; preds = %164
  call void @llvm.lifetime.start.p0(i64 4, ptr %14) #7
  %166 = load ptr, ptr @transInvalInfo, align 8
  %167 = getelementptr inbounds nuw %struct.TransInvalidationInfo, ptr %166, i32 0, i32 1
  %168 = getelementptr inbounds nuw %struct.InvalidationMsgsGroup, ptr %167, i32 0, i32 1
  %169 = getelementptr inbounds [2 x i32], ptr %168, i64 0, i64 1
  %170 = load i32, ptr %169, align 4
  %171 = load ptr, ptr @transInvalInfo, align 8
  %172 = getelementptr inbounds nuw %struct.TransInvalidationInfo, ptr %171, i32 0, i32 1
  %173 = getelementptr inbounds nuw %struct.InvalidationMsgsGroup, ptr %172, i32 0, i32 0
  %174 = getelementptr inbounds [2 x i32], ptr %173, i64 0, i64 1
  %175 = load i32, ptr %174, align 4
  %176 = sub i32 %170, %175
  store i32 %176, ptr %14, align 4
  %177 = load i32, ptr %14, align 4
  %178 = icmp sgt i32 %177, 0
  br i1 %178, label %179, label %199

179:                                              ; preds = %165
  call void @llvm.lifetime.start.p0(i64 8, ptr %15) #7
  %180 = load ptr, ptr getelementptr inbounds ([2 x %struct.InvalMessageArray], ptr @InvalMessageArrays, i64 0, i64 1), align 16
  %181 = load ptr, ptr @transInvalInfo, align 8
  %182 = getelementptr inbounds nuw %struct.TransInvalidationInfo, ptr %181, i32 0, i32 1
  %183 = getelementptr inbounds nuw %struct.InvalidationMsgsGroup, ptr %182, i32 0, i32 0
  %184 = getelementptr inbounds [2 x i32], ptr %183, i64 0, i64 1
  %185 = load i32, ptr %184, align 4
  %186 = sext i32 %185 to i64
  %187 = getelementptr inbounds %union.SharedInvalidationMessage, ptr %180, i64 %186
  store ptr %187, ptr %15, align 8
  %188 = load ptr, ptr %6, align 8
  %189 = load i32, ptr %8, align 4
  %190 = sext i32 %189 to i64
  %191 = getelementptr inbounds %union.SharedInvalidationMessage, ptr %188, i64 %190
  %192 = load ptr, ptr %15, align 8
  %193 = load i32, ptr %14, align 4
  %194 = sext i32 %193 to i64
  %195 = mul i64 %194, 16
  call void @llvm.memcpy.p0.p0.i64(ptr align 4 %191, ptr align 4 %192, i64 %195, i1 false)
  %196 = load i32, ptr %14, align 4
  %197 = load i32, ptr %8, align 4
  %198 = add i32 %197, %196
  store i32 %198, ptr %8, align 4
  call void @llvm.lifetime.end.p0(i64 8, ptr %15) #7
  br label %199

199:                                              ; preds = %179, %165
  call void @llvm.lifetime.end.p0(i64 4, ptr %14) #7
  br label %200

200:                                              ; preds = %199
  br label %201

201:                                              ; preds = %200
  br label %202

202:                                              ; preds = %201
  call void @llvm.lifetime.start.p0(i64 4, ptr %16) #7
  %203 = load ptr, ptr @transInvalInfo, align 8
  %204 = getelementptr inbounds nuw %struct.TransInvalidationInfo, ptr %203, i32 0, i32 0
  %205 = getelementptr inbounds nuw %struct.InvalidationInfo, ptr %204, i32 0, i32 0
  %206 = getelementptr inbounds nuw %struct.InvalidationMsgsGroup, ptr %205, i32 0, i32 1
  %207 = getelementptr inbounds [2 x i32], ptr %206, i64 0, i64 1
  %208 = load i32, ptr %207, align 4
  %209 = load ptr, ptr @transInvalInfo, align 8
  %210 = getelementptr inbounds nuw %struct.TransInvalidationInfo, ptr %209, i32 0, i32 0
  %211 = getelementptr inbounds nuw %struct.InvalidationInfo, ptr %210, i32 0, i32 0
  %212 = getelementptr inbounds nuw %struct.InvalidationMsgsGroup, ptr %211, i32 0, i32 0
  %213 = getelementptr inbounds [2 x i32], ptr %212, i64 0, i64 1
  %214 = load i32, ptr %213, align 4
  %215 = sub i32 %208, %214
  store i32 %215, ptr %16, align 4
  %216 = load i32, ptr %16, align 4
  %217 = icmp sgt i32 %216, 0
  br i1 %217, label %218, label %239

218:                                              ; preds = %202
  call void @llvm.lifetime.start.p0(i64 8, ptr %17) #7
  %219 = load ptr, ptr getelementptr inbounds ([2 x %struct.InvalMessageArray], ptr @InvalMessageArrays, i64 0, i64 1), align 16
  %220 = load ptr, ptr @transInvalInfo, align 8
  %221 = getelementptr inbounds nuw %struct.TransInvalidationInfo, ptr %220, i32 0, i32 0
  %222 = getelementptr inbounds nuw %struct.InvalidationInfo, ptr %221, i32 0, i32 0
  %223 = getelementptr inbounds nuw %struct.InvalidationMsgsGroup, ptr %222, i32 0, i32 0
  %224 = getelementptr inbounds [2 x i32], ptr %223, i64 0, i64 1
  %225 = load i32, ptr %224, align 4
  %226 = sext i32 %225 to i64
  %227 = getelementptr inbounds %union.SharedInvalidationMessage, ptr %219, i64 %226
  store ptr %227, ptr %17, align 8
  %228 = load ptr, ptr %6, align 8
  %229 = load i32, ptr %8, align 4
  %230 = sext i32 %229 to i64
  %231 = getelementptr inbounds %union.SharedInvalidationMessage, ptr %228, i64 %230
  %232 = load ptr, ptr %17, align 8
  %233 = load i32, ptr %16, align 4
  %234 = sext i32 %233 to i64
  %235 = mul i64 %234, 16
  call void @llvm.memcpy.p0.p0.i64(ptr align 4 %231, ptr align 4 %232, i64 %235, i1 false)
  %236 = load i32, ptr %16, align 4
  %237 = load i32, ptr %8, align 4
  %238 = add i32 %237, %236
  store i32 %238, ptr %8, align 4
  call void @llvm.lifetime.end.p0(i64 8, ptr %17) #7
  br label %239

239:                                              ; preds = %218, %202
  call void @llvm.lifetime.end.p0(i64 4, ptr %16) #7
  br label %240

240:                                              ; preds = %239
  br label %241

241:                                              ; preds = %240
  %242 = load i32, ptr %8, align 4
  store i32 %242, ptr %3, align 4
  store i32 1, ptr %9, align 4
  br label %243

243:                                              ; preds = %241, %20
  call void @llvm.lifetime.end.p0(i64 4, ptr %8) #7
  call void @llvm.lifetime.end.p0(i64 4, ptr %7) #7
  call void @llvm.lifetime.end.p0(i64 8, ptr %6) #7
  %244 = load i32, ptr %3, align 4
  ret i32 %244
}