; Function Attrs: nounwind uwtable
define dso_local i32 @xactGetCommittedInvalidationMessages(ptr noundef writeonly captures(none) initializes((0, 8)) %0, ptr noundef writeonly captures(none) initializes((0, 1)) %1) local_unnamed_addr #0 {
  %3 = load ptr, ptr @transInvalInfo, align 8
  %4 = icmp eq ptr %3, null
  br i1 %4, label %5, label %6

5:                                                ; preds = %2
  store i8 0, ptr %1, align 1
  store ptr null, ptr %0, align 8
  br label %95

6:                                                ; preds = %2
  %7 = getelementptr inbounds nuw i8, ptr %3, i64 16
  %8 = load i8, ptr %7, align 8, !range !11, !noundef !12
  store i8 %8, ptr %1, align 1
  %9 = getelementptr inbounds nuw i8, ptr %3, i64 20
  %10 = getelementptr inbounds nuw i8, ptr %3, i64 28
  %11 = load i32, ptr %10, align 4
  %12 = load i32, ptr %9, align 4
  %13 = getelementptr inbounds nuw i8, ptr %3, i64 32
  %14 = load i32, ptr %13, align 4
  %15 = getelementptr inbounds nuw i8, ptr %3, i64 24
  %16 = load i32, ptr %15, align 4
  %17 = getelementptr inbounds nuw i8, ptr %3, i64 8
  %18 = load i32, ptr %17, align 8
  %19 = load i32, ptr %3, align 8
  %20 = getelementptr inbounds nuw i8, ptr %3, i64 12
  %21 = load i32, ptr %20, align 4
  %22 = getelementptr inbounds nuw i8, ptr %3, i64 4
  %23 = load i32, ptr %22, align 4
  %24 = add i32 %11, %14
  %25 = add i32 %12, %16
  %26 = add i32 %24, %18
  %27 = add i32 %25, %19
  %28 = add i32 %26, %21
  %29 = add i32 %27, %23
  %30 = sub i32 %28, %29
  %31 = load ptr, ptr @CurTransactionContext, align 8
  %32 = sext i32 %30 to i64
  %33 = shl nsw i64 %32, 4
  %34 = tail call ptr @MemoryContextAlloc(ptr noundef %31, i64 noundef %33) #7
  store ptr %34, ptr %0, align 8
  %35 = load ptr, ptr @transInvalInfo, align 8
  %36 = getelementptr inbounds nuw i8, ptr %35, i64 20
  %37 = getelementptr inbounds nuw i8, ptr %35, i64 28
  %38 = load i32, ptr %37, align 4
  %39 = load i32, ptr %36, align 4
  %40 = sub i32 %38, %39
  %41 = icmp sgt i32 %40, 0
  br i1 %41, label %42, label %48

42:                                               ; preds = %6
  %43 = load ptr, ptr @InvalMessageArrays.0, align 16
  %44 = sext i32 %39 to i64
  %45 = getelementptr inbounds %union.SharedInvalidationMessage, ptr %43, i64 %44
  %46 = zext nneg i32 %40 to i64
  %47 = shl nuw nsw i64 %46, 4
  tail call void @llvm.memcpy.p0.p0.i64(ptr align 4 %34, ptr align 4 %45, i64 %47, i1 false)
  br label %48

48:                                               ; preds = %42, %6
  %.034 = phi i32 [ %40, %42 ], [ 0, %6 ]
  %49 = getelementptr inbounds nuw i8, ptr %35, i64 8
  %50 = load i32, ptr %49, align 8
  %51 = load i32, ptr %35, align 8
  %52 = sub i32 %50, %51
  %53 = icmp sgt i32 %52, 0
  br i1 %53, label %54, label %63

54:                                               ; preds = %48
  %55 = load ptr, ptr @InvalMessageArrays.0, align 16
  %56 = sext i32 %51 to i64
  %57 = getelementptr inbounds %union.SharedInvalidationMessage, ptr %55, i64 %56
  %58 = zext nneg i32 %.034 to i64
  %59 = getelementptr inbounds nuw %union.SharedInvalidationMessage, ptr %34, i64 %58
  %60 = zext nneg i32 %52 to i64
  %61 = shl nuw nsw i64 %60, 4
  tail call void @llvm.memcpy.p0.p0.i64(ptr align 4 %59, ptr align 4 %57, i64 %61, i1 false)
  %62 = add nuw i32 %52, %.034
  br label %63

63:                                               ; preds = %54, %48
  %.1 = phi i32 [ %62, %54 ], [ %.034, %48 ]
  %64 = getelementptr inbounds nuw i8, ptr %35, i64 32
  %65 = load i32, ptr %64, align 4
  %66 = getelementptr inbounds nuw i8, ptr %35, i64 24
  %67 = load i32, ptr %66, align 4
  %68 = sub i32 %65, %67
  %69 = icmp sgt i32 %68, 0
  br i1 %69, label %70, label %79

70:                                               ; preds = %63
  %71 = load ptr, ptr @InvalMessageArrays.2, align 16
  %72 = sext i32 %67 to i64
  %73 = getelementptr inbounds %union.SharedInvalidationMessage, ptr %71, i64 %72
  %74 = sext i32 %.1 to i64
  %75 = getelementptr inbounds %union.SharedInvalidationMessage, ptr %34, i64 %74
  %76 = zext nneg i32 %68 to i64
  %77 = shl nuw nsw i64 %76, 4
  tail call void @llvm.memcpy.p0.p0.i64(ptr align 4 %75, ptr align 4 %73, i64 %77, i1 false)
  %78 = add i32 %68, %.1
  br label %79

79:                                               ; preds = %70, %63
  %.2 = phi i32 [ %78, %70 ], [ %.1, %63 ]
  %80 = getelementptr inbounds nuw i8, ptr %35, i64 12
  %81 = load i32, ptr %80, align 4
  %82 = getelementptr inbounds nuw i8, ptr %35, i64 4
  %83 = load i32, ptr %82, align 4
  %84 = sub i32 %81, %83
  %85 = icmp sgt i32 %84, 0
  br i1 %85, label %86, label %95

86:                                               ; preds = %79
  %87 = load ptr, ptr @InvalMessageArrays.2, align 16
  %88 = sext i32 %83 to i64
  %89 = getelementptr inbounds %union.SharedInvalidationMessage, ptr %87, i64 %88
  %90 = sext i32 %.2 to i64
  %91 = getelementptr inbounds %union.SharedInvalidationMessage, ptr %34, i64 %90
  %92 = zext nneg i32 %84 to i64
  %93 = shl nuw nsw i64 %92, 4
  tail call void @llvm.memcpy.p0.p0.i64(ptr align 4 %91, ptr align 4 %89, i64 %93, i1 false)
  %94 = add i32 %84, %.2
  br label %95

95:                                               ; preds = %79, %86, %5
  %.0 = phi i32 [ 0, %5 ], [ %94, %86 ], [ %.2, %79 ]
  ret i32 %.0
}